; Function Attrs: mustprogress uwtable
define internal noundef i32 @_ZN4LuauL17typeUserdataIndexEP9lua_State(ptr noundef %0) #2 personality ptr @__gxx_personality_v0 {
  %2 = alloca %"class.std::__cxx11::basic_string", align 8
  %3 = tail call noundef ptr @_Z20lua_touserdatataggedP9lua_Stateii(ptr noundef %0, i32 noundef 1, i32 noundef 42)
  %.not.not.i = icmp eq ptr %3, null
  br i1 %.not.not.i, label %4, label %_ZN4Luau15getTypeUserDataEP9lua_Statei.exit

4:                                                ; preds = %1
  tail call void @_Z15luaL_typeerrorLP9lua_StateiPKc(ptr noundef %0, i32 noundef 1, ptr noundef nonnull @.str.67) #29
  unreachable

_ZN4Luau15getTypeUserDataEP9lua_Statei.exit:      ; preds = %1
  %5 = load ptr, ptr %3, align 8, !tbaa !29
  %6 = tail call noundef ptr @_Z17luaL_checklstringP9lua_StateiPm(ptr noundef %0, i32 noundef 2, ptr noundef null)
  %7 = tail call i32 @strcmp(ptr noundef nonnull dereferenceable(1) %6, ptr noundef nonnull dereferenceable(4) @.str.223) #32
  %8 = icmp eq i32 %7, 0
  br i1 %8, label %9, label %30

9:                                                ; preds = %_ZN4Luau15getTypeUserDataEP9lua_Statei.exit
  call void @llvm.lifetime.start.p0(i64 32, ptr nonnull %2) #27
  call fastcc void @_ZN4LuauL6getTagB5cxx11EP9lua_StatePKNS_16TypeFunctionTypeE(ptr dead_on_unwind noalias writable align 8 %2, ptr noundef %5)
  %10 = load ptr, ptr %2, align 8, !tbaa !15
  invoke void @_Z14lua_pushstringP9lua_StatePKc(ptr noundef %0, ptr noundef %10)
          to label %11 unwind label %20

11:                                               ; preds = %9
  %12 = load ptr, ptr %2, align 8, !tbaa !15
  %13 = getelementptr inbounds nuw i8, ptr %2, i64 16
  %14 = icmp eq ptr %12, %13
  br i1 %14, label %_ZNKSt7__cxx1112basic_stringIcSt11char_traitsIcESaIcEE11_M_is_localEv.exit.thread.i.i, label %_ZNKSt7__cxx1112basic_stringIcSt11char_traitsIcESaIcEE11_M_is_localEv.exit.i.i

_ZNKSt7__cxx1112basic_stringIcSt11char_traitsIcESaIcEE11_M_is_localEv.exit.thread.i.i: ; preds = %11
  %15 = getelementptr inbounds nuw i8, ptr %2, i64 8
  %16 = load i64, ptr %15, align 8, !tbaa !18
  %17 = icmp ult i64 %16, 16
  call void @llvm.assume(i1 %17)
  br label %_ZNSt7__cxx1112basic_stringIcSt11char_traitsIcESaIcEED2Ev.exit

_ZNKSt7__cxx1112basic_stringIcSt11char_traitsIcESaIcEE11_M_is_localEv.exit.i.i: ; preds = %11
  %18 = load i64, ptr %13, align 8, !tbaa !19
  %19 = add i64 %18, 1
  call void @_ZdlPvm(ptr noundef %12, i64 noundef %19) #30
  br label %_ZNSt7__cxx1112basic_stringIcSt11char_traitsIcESaIcEED2Ev.exit

_ZNSt7__cxx1112basic_stringIcSt11char_traitsIcESaIcEED2Ev.exit: ; preds = %_ZNKSt7__cxx1112basic_stringIcSt11char_traitsIcESaIcEE11_M_is_localEv.exit.thread.i.i, %_ZNKSt7__cxx1112basic_stringIcSt11char_traitsIcESaIcEE11_M_is_localEv.exit.i.i
  call void @llvm.lifetime.end.p0(i64 32, ptr nonnull %2) #27
  br label %32

20:                                               ; preds = %9
  %21 = landingpad { ptr, i32 }
          cleanup
  %22 = load ptr, ptr %2, align 8, !tbaa !15
  %23 = getelementptr inbounds nuw i8, ptr %2, i64 16
  %24 = icmp eq ptr %22, %23
  br i1 %24, label %_ZNKSt7__cxx1112basic_stringIcSt11char_traitsIcESaIcEE11_M_is_localEv.exit.thread.i.i12, label %_ZNKSt7__cxx1112basic_stringIcSt11char_traitsIcESaIcEE11_M_is_localEv.exit.i.i11

_ZNKSt7__cxx1112basic_stringIcSt11char_traitsIcESaIcEE11_M_is_localEv.exit.thread.i.i12: ; preds = %20
  %25 = getelementptr inbounds nuw i8, ptr %2, i64 8
  %26 = load i64, ptr %25, align 8, !tbaa !18
  %27 = icmp ult i64 %26, 16
  call void @llvm.assume(i1 %27)
  br label %_ZNSt7__cxx1112basic_stringIcSt11char_traitsIcESaIcEED2Ev.exit13

_ZNKSt7__cxx1112basic_stringIcSt11char_traitsIcESaIcEE11_M_is_localEv.exit.i.i11: ; preds = %20
  %28 = load i64, ptr %23, align 8, !tbaa !19
  %29 = add i64 %28, 1
  call void @_ZdlPvm(ptr noundef %22, i64 noundef %29) #30
  br label %_ZNSt7__cxx1112basic_stringIcSt11char_traitsIcESaIcEED2Ev.exit13

_ZNSt7__cxx1112basic_stringIcSt11char_traitsIcESaIcEED2Ev.exit13: ; preds = %_ZNKSt7__cxx1112basic_stringIcSt11char_traitsIcESaIcEE11_M_is_localEv.exit.thread.i.i12, %_ZNKSt7__cxx1112basic_stringIcSt11char_traitsIcESaIcEE11_M_is_localEv.exit.i.i11
  call void @llvm.lifetime.end.p0(i64 32, ptr nonnull %2) #27
  resume { ptr, i32 } %21

30:                                               ; preds = %_ZN4Luau15getTypeUserDataEP9lua_Statei.exit
  tail call void @_Z13lua_pushvalueP9lua_Statei(ptr noundef %0, i32 noundef -10003)
  %31 = tail call noundef i32 @_Z12lua_getfieldP9lua_StateiPKc(ptr noundef %0, i32 noundef -1, ptr noundef nonnull %6)
  br label %32

32:                                               ; preds = %30, %_ZNSt7__cxx1112basic_stringIcSt11char_traitsIcESaIcEED2Ev.exit
  ret i32 1
}